target datalayout = "e-m:e-p270:32:32-p271:32:32-p272:64:64-i64:64-i128:128-f80:128-n8:16:32:64-S128"
target triple = "x86_64-unknown-linux-gnu"

%struct.Token = type { i32, ptr, i64, x86_fp80, ptr, i32, ptr, ptr, ptr, ptr, i32, i32, i8, i8, ptr, ptr }

; Function Attrs: nounwind uwtable
define dso_local zeroext i1 @equal(ptr noundef %tok, ptr noundef %op) #4 {
entry:
  %tok.addr = alloca ptr, align 8
  %op.addr = alloca ptr, align 8
  store ptr %tok, ptr %tok.addr, align 8
  store ptr %op, ptr %op.addr, align 8
  %0 = load ptr, ptr %tok.addr, align 8
  %loc = getelementptr inbounds %struct.Token, ptr %0, i32 0, i32 4
  %1 = load ptr, ptr %loc, align 16
  %2 = load ptr, ptr %op.addr, align 8
  %3 = load ptr, ptr %tok.addr, align 8
  %len = getelementptr inbounds %struct.Token, ptr %3, i32 0, i32 5
  %4 = load i32, ptr %len, align 8
  %conv = sext i32 %4 to i64
  %call = call i32 @memcmp(ptr noundef %1, ptr noundef %2, i64 noundef %conv) #12
  %cmp = icmp eq i32 %call, 0
  br i1 %cmp, label %land.rhs, label %land.end

land.rhs:                                         ; preds = %entry
  %5 = load ptr, ptr %op.addr, align 8
  %6 = load ptr, ptr %tok.addr, align 8
  %len2 = getelementptr inbounds %struct.Token, ptr %6, i32 0, i32 5
  %7 = load i32, ptr %len2, align 8
  %idxprom = sext i32 %7 to i64
  %arrayidx = getelementptr inbounds i8, ptr %5, i64 %idxprom
  %8 = load i8, ptr %arrayidx, align 1
  %conv3 = sext i8 %8 to i32
  %cmp4 = icmp eq i32 %conv3, 0
  br label %land.end

land.end:                                         ; preds = %land.rhs, %entry
  %9 = phi i1 [ false, %entry ], [ %cmp4, %land.rhs ]
  ret i1 %9
}