; Function Attrs: mustprogress nofree nounwind willreturn memory(read, inaccessiblemem: none) uwtable
define dso_local zeroext i1 @equal(ptr nocapture noundef readonly %tok, ptr nocapture noundef readonly %op) local_unnamed_addr #5 {
entry:
  %loc = getelementptr inbounds %struct.Token, ptr %tok, i64 0, i32 4
  %0 = load ptr, ptr %loc, align 16
  %len = getelementptr inbounds %struct.Token, ptr %tok, i64 0, i32 5
  %1 = load i32, ptr %len, align 8
  %conv = sext i32 %1 to i64
  %bcmp = tail call i32 @bcmp(ptr %0, ptr %op, i64 %conv)
  %cmp = icmp eq i32 %bcmp, 0
  br i1 %cmp, label %land.rhs, label %land.end

land.rhs:                                         ; preds = %entry
  %arrayidx = getelementptr inbounds i8, ptr %op, i64 %conv
  %2 = load i8, ptr %arrayidx, align 1
  %cmp4 = icmp eq i8 %2, 0
  br label %land.end

land.end:                                         ; preds = %land.rhs, %entry
  %3 = phi i1 [ false, %entry ], [ %cmp4, %land.rhs ]
  ret i1 %3
}